; Function Attrs: nounwind uwtable
define ptr @l_Std_Sat_AIG_RefVec_push___rarg(ptr noundef %0, ptr noundef readonly captures(none) %1) local_unnamed_addr #1 {
  %3 = getelementptr inbounds nuw i8, ptr %1, i64 8
  %4 = load ptr, ptr %3, align 8, !tbaa !4
  %5 = getelementptr i8, ptr %1, i64 16
  %.val = load i8, ptr %5, align 1, !tbaa !18
  %6 = ptrtoint ptr %4 to i64
  %7 = and i64 %6, 1
  %.not = icmp eq i64 %7, 0
  br i1 %.not, label %.critedge.i, label %8, !prof !17

8:                                                ; preds = %2
  %9 = lshr i64 %6, 1
  %10 = icmp ult ptr %4, inttoptr (i64 2 to ptr)
  br i1 %10, label %lean_nat_mul.exit, label %11

11:                                               ; preds = %8
  %12 = icmp sgt ptr %4, inttoptr (i64 -1 to ptr)
  br i1 %12, label %13, label %17

13:                                               ; preds = %11
  %mul.i16 = shl i64 %6, 1
  %14 = and i64 %mul.i16, -4
  %15 = or disjoint i64 %14, 1
  %16 = inttoptr i64 %15 to ptr
  br label %lean_nat_mul.exit

17:                                               ; preds = %11
  %18 = tail call ptr @lean_nat_overflow_mul(i64 noundef %9, i64 noundef 2) #4
  br label %lean_nat_mul.exit

.critedge.i:                                      ; preds = %2
  %19 = tail call ptr @lean_nat_big_mul(ptr noundef %4, ptr noundef nonnull inttoptr (i64 5 to ptr)) #4
  br label %lean_nat_mul.exit

lean_nat_mul.exit:                                ; preds = %8, %13, %17, %.critedge.i
  %.2.i = phi ptr [ %19, %.critedge.i ], [ %4, %8 ], [ %16, %13 ], [ %18, %17 ]
  %20 = tail call ptr @l_Bool_toNat(i8 noundef zeroext %.val) #4
  %21 = ptrtoint ptr %.2.i to i64
  %22 = and i64 %21, 1
  %.not.i14 = icmp eq i64 %22, 0
  %.pre21 = ptrtoint ptr %20 to i64
  %.pre = and i64 %.pre21, 1
  %23 = icmp eq i64 %.pre, 0
  br i1 %.not.i14, label %lean_nat_lor.exit, label %24, !prof !17

24:                                               ; preds = %lean_nat_mul.exit
  br i1 %23, label %lean_nat_lor.exit.thread25, label %lean_dec.exit11.thread30, !prof !17

lean_nat_lor.exit.thread25:                       ; preds = %24
  %25 = tail call ptr @lean_nat_big_lor(ptr noundef %.2.i, ptr noundef %20) #4
  br label %29

lean_dec.exit11.thread30:                         ; preds = %24
  %26 = or i64 %.pre21, %21
  %27 = inttoptr i64 %26 to ptr
  br label %lean_dec.exit

lean_nat_lor.exit:                                ; preds = %lean_nat_mul.exit
  %28 = tail call ptr @lean_nat_big_lor(ptr noundef %.2.i, ptr noundef %20) #4
  br i1 %23, label %29, label %lean_dec.exit11.thread

29:                                               ; preds = %lean_nat_lor.exit.thread25, %lean_nat_lor.exit
  %30 = phi ptr [ %25, %lean_nat_lor.exit.thread25 ], [ %28, %lean_nat_lor.exit ]
  %31 = load i32, ptr %20, align 4, !tbaa !8
  %32 = icmp sgt i32 %31, 1
  br i1 %32, label %33, label %35, !prof !11

33:                                               ; preds = %29
  %34 = add nsw i32 %31, -1
  store i32 %34, ptr %20, align 4, !tbaa !8
  br label %lean_dec.exit11

35:                                               ; preds = %29
  %.not.i = icmp eq i32 %31, 0
  br i1 %.not.i, label %lean_dec.exit11, label %36

36:                                               ; preds = %35
  tail call void @lean_dec_ref_cold(ptr noundef nonnull %20) #4
  br label %lean_dec.exit11

lean_dec.exit11:                                  ; preds = %36, %35, %33
  br i1 %.not.i14, label %lean_dec.exit11.thread, label %lean_dec.exit

lean_dec.exit11.thread:                           ; preds = %lean_nat_lor.exit, %lean_dec.exit11
  %.0.i2429 = phi ptr [ %30, %lean_dec.exit11 ], [ %28, %lean_nat_lor.exit ]
  %37 = load i32, ptr %.2.i, align 4, !tbaa !8
  %38 = icmp sgt i32 %37, 1
  br i1 %38, label %39, label %41, !prof !11

39:                                               ; preds = %lean_dec.exit11.thread
  %40 = add nsw i32 %37, -1
  store i32 %40, ptr %.2.i, align 4, !tbaa !8
  br label %lean_dec.exit

41:                                               ; preds = %lean_dec.exit11.thread
  %.not.i12 = icmp eq i32 %37, 0
  br i1 %.not.i12, label %lean_dec.exit, label %42

42:                                               ; preds = %41
  tail call void @lean_dec_ref_cold(ptr noundef nonnull %.2.i) #4
  br label %lean_dec.exit

lean_dec.exit:                                    ; preds = %lean_dec.exit11.thread30, %42, %41, %39, %lean_dec.exit11
  %.0.i2428 = phi ptr [ %.0.i2429, %42 ], [ %.0.i2429, %41 ], [ %.0.i2429, %39 ], [ %30, %lean_dec.exit11 ], [ %27, %lean_dec.exit11.thread30 ]
  %43 = tail call ptr @lean_array_push(ptr noundef %0, ptr noundef %.0.i2428) #4
  ret ptr %43
}